target datalayout = "e-m:e-p270:32:32-p271:32:32-p272:64:64-i64:64-i128:128-f80:128-n8:16:32:64-S128"
target triple = "x86_64-pc-linux-gnu"

%struct.MPVMainEncContext = type { %struct.MPVEncContext, i32, i32, i32, i32, i32, i32, [17 x ptr], [17 x ptr], i64, i64, i64, [18 x ptr], i32, i32, i32, i32, i32, float, i32, i32, i32, i32, ptr, i32, i32, i32, i32, ptr, ptr, i64, i64, i32, i32, i32, i32, i32, [5 x i32], i32, i32, %struct.RateControlContext, i32, i32, i64, i64, ptr, ptr, ptr }
%struct.MPVEncContext = type { %struct.MpegEncContext, %struct.PutBitContext, i32, i32, ptr, i32, i32, i32, i32, i32, i32, i32, i32, ptr, ptr, %struct.FDCTDSPContext, %struct.MpegvideoEncDSPContext, %struct.PixblockDSPContext, %struct.MotionEstContext, i32, i32, ptr, ptr, ptr, ptr, ptr, ptr, [2 x [2 x [2 x ptr]]], [2 x ptr], [2 x [2 x ptr]], ptr, ptr, ptr, ptr, [3 x i64], i32, i32, i32, i32, i32, ptr, ptr, ptr, ptr, ptr, ptr, ptr, [12 x i32], ptr, ptr, ptr, ptr, ptr, ptr, ptr, ptr, [2 x i32], ptr, i32, i32, i32, i32, i32, i32, i32, i32, i32, i32, ptr, ptr, i32, i32, %struct.PutBitContext, %struct.PutBitContext, i32, i32, i32, i32, ptr, ptr, ptr, [2 x ptr], [2 x ptr], [2 x ptr], [2 x ptr], ptr, i32 }
%struct.MpegEncContext = type { ptr, i32, i32, i32, [12 x i32], i32, %struct.ScanTable, %struct.ScanTable, [64 x i8], [64 x i8], ptr, ptr, i32, i32, i32, i32, i32, i32, i32, i32, i32, i32, i32, i32, i32, i32, i32, i32, i32, i32, i32, i32, i64, i64, ptr, %struct.BufferPoolContext, i32, i32, %union.anon, i32, %struct.MPVWorkPicture, %struct.MPVWorkPicture, %struct.MPVWorkPicture, i32, [3 x i32], ptr, [3 x ptr], ptr, ptr, ptr, ptr, ptr, ptr, [3 x ptr], i32, ptr, ptr, ptr, ptr, %struct.ScratchpadContext, i32, i32, i32, i32, i32, i32, %struct.BlockDSPContext, %struct.H264ChromaContext, %struct.HpelDSPContext, %struct.IDCTDSPContext, %struct.QpelDSPContext, %struct.VideoDSPContext, %struct.H263DSPContext, ptr, [2 x [2 x ptr]], i32, i32, [2 x [4 x [2 x i32]]], [2 x [2 x i32]], [2 x [2 x [2 x i32]]], [2 x [64 x i16]], i32, i32, i32, i32, i32, [6 x i32], [6 x i32], [3 x ptr], ptr, [64 x i16], [64 x i16], [64 x i16], [64 x i16], i32, i32, %struct.GetBitContext, i32, i32, i32, i32, i32, i32, i32, i32, i32, i32, i32, i32, i32, i32, i32, i64, i64, i16, i16, i16, i16, i32, i32, i32, i32, i32, i32, i32, i32, i32, [3 x i32], i32, i32, i32, i32, i32, i32, %struct.GetBitContext, i32, [2 x [2 x i32]], i32, i32, i32, i32, i32, i32, i32, i32, i32, i32, i32, i32, i32, i32, [2 x i32], i32, i32, ptr, ptr, ptr, ptr, ptr, i32, i32, %struct.ERContext }
%struct.ScanTable = type { ptr, [64 x i8], [64 x i8] }
%struct.BufferPoolContext = type { ptr, ptr, ptr, ptr, ptr, i32, i32, i32 }
%union.anon = type { [32 x ptr] }
%struct.MPVWorkPicture = type { [3 x ptr], [3 x i64], ptr, ptr, [2 x ptr], ptr, ptr, [2 x ptr], i32 }
%struct.ScratchpadContext = type { ptr, ptr, %union.anon.0, i32 }
%union.anon.0 = type { ptr }
%struct.BlockDSPContext = type { ptr, ptr, [2 x ptr] }
%struct.H264ChromaContext = type { [4 x ptr], [4 x ptr] }
%struct.HpelDSPContext = type { [4 x [4 x ptr]], [4 x [4 x ptr]], [4 x [4 x ptr]], [4 x ptr] }
%struct.IDCTDSPContext = type { ptr, ptr, ptr, ptr, ptr, ptr, [64 x i8], i32, i32 }
%struct.QpelDSPContext = type { [2 x [16 x ptr]], [2 x [16 x ptr]], [2 x [16 x ptr]] }
%struct.VideoDSPContext = type { ptr, ptr }
%struct.H263DSPContext = type { ptr, ptr }
%struct.GetBitContext = type { ptr, ptr, i32, i32, i32 }
%struct.ERContext = type { ptr, ptr, i32, ptr, i32, i32, i32, i64, i64, i32, i32, ptr, ptr, [3 x ptr], ptr, ptr, [2 x [4 x [2 x i32]]], %struct.ERPicture, %struct.ERPicture, %struct.ERPicture, [2 x ptr], [2 x ptr], i16, i16, i32, i32, ptr, ptr }
%struct.ERPicture = type { ptr, ptr, ptr, [2 x ptr], [2 x ptr], ptr, i32 }
%struct.FDCTDSPContext = type { ptr, ptr }
%struct.MpegvideoEncDSPContext = type { ptr, ptr, ptr, ptr, [4 x ptr], ptr }
%struct.PixblockDSPContext = type { ptr, ptr, ptr, ptr }
%struct.MotionEstContext = type { ptr, i32, i32, [4 x [2 x i32]], [4 x [2 x i32]], ptr, ptr, i32, i32, i32, i32, i32, i32, i32, i32, i32, i32, i32, i32, i32, i32, i32, i32, [4 x [4 x ptr]], [4 x [4 x ptr]], i32, i32, i64, i64, i32, [6 x ptr], [6 x ptr], [6 x ptr], [6 x ptr], [2 x [4 x ptr]], ptr, ptr, ptr, ptr, ptr, ptr, ptr, ptr, [64 x i32], [64 x i32] }
%struct.PutBitContext = type { i32, i32, ptr, ptr, ptr }
%struct.RateControlContext = type { i32, ptr, double, [5 x %struct.Predictor], double, double, double, double, double, [5 x double], i64, i64, [5 x i64], [5 x i64], [5 x i64], [5 x i64], [5 x i32], i32, float, float, i32, float, float, ptr, ptr, ptr, ptr }
%struct.Predictor = type { double, double, double }
%struct.AVCodecContext = type { ptr, i32, i32, ptr, i32, i32, ptr, ptr, ptr, i64, i32, i32, ptr, i32, %struct.AVRational, %struct.AVRational, %struct.AVRational, i32, i32, i32, i32, i32, %struct.AVRational, i32, i32, i32, i32, i32, i32, i32, i32, i32, i32, i32, ptr, ptr, i32, float, float, float, float, float, float, float, float, float, i32, i32, i32, i32, i32, i32, i32, i32, i32, i32, i32, i32, ptr, ptr, ptr, i32, i32, i32, i32, i32, i32, i32, i32, i32, i32, %struct.AVChannelLayout, i32, i32, i32, i32, i32, i32, i32, i32, ptr, i32, i32, i32, float, float, i32, i32, i32, i32, i32, ptr, i64, i64, float, float, i32, i32, ptr, ptr, i32, i32, i32, i32, i32, ptr, ptr, ptr, ptr, i32, i32, [8 x i64], i32, i32, i32, i32, i32, i32, i32, ptr, ptr, i32, i32, i32, i32, i32, i32, i32, i32, i32, i32, ptr, ptr, i32, i32, ptr, ptr, ptr, ptr, i32, i32, i64, i32, i32, i64, ptr, i64, ptr, i32, ptr, i32 }
%struct.AVRational = type { i32, i32 }
%struct.AVChannelLayout = type { i32, i32, %union.anon.1, ptr }
%union.anon.1 = type { i64 }

@.str.33 = private unnamed_addr constant [21 x i8] c"rc buffer underflow\0A\00", align 1
@.str.34 = private unnamed_addr constant [80 x i8] c"max bitrate possibly too small or try trellis with large lmax or increase qmax\0A\00", align 1
@.str.35 = private unnamed_addr constant [19 x i8] c"stuffing %d bytes\0A\00", align 1

; Function Attrs: alwaysinline nounwind uwtable
define internal i64 @av_inv_q(i64 %0) #11 {
  %2 = alloca %struct.AVRational, align 4
  %3 = alloca %struct.AVRational, align 4
  store i64 %0, ptr %3, align 4
  %4 = getelementptr inbounds nuw %struct.AVRational, ptr %2, i32 0, i32 0
  %5 = getelementptr inbounds nuw %struct.AVRational, ptr %3, i32 0, i32 1
  %6 = load i32, ptr %5, align 4, !tbaa !150
  store i32 %6, ptr %4, align 4, !tbaa !149
  %7 = getelementptr inbounds nuw %struct.AVRational, ptr %2, i32 0, i32 1
  %8 = getelementptr inbounds nuw %struct.AVRational, ptr %3, i32 0, i32 0
  %9 = load i32, ptr %8, align 4, !tbaa !149
  store i32 %9, ptr %7, align 4, !tbaa !150
  %10 = load i64, ptr %2, align 4
  ret i64 %10
}

; Function Attrs: inlinehint nounwind uwtable
define internal double @av_q2d(i64 %0) #9 {
  %2 = alloca %struct.AVRational, align 4
  store i64 %0, ptr %2, align 4
  %3 = getelementptr inbounds nuw %struct.AVRational, ptr %2, i32 0, i32 0
  %4 = load i32, ptr %3, align 4, !tbaa !149
  %5 = sitofp i32 %4 to double
  %6 = getelementptr inbounds nuw %struct.AVRational, ptr %2, i32 0, i32 1
  %7 = load i32, ptr %6, align 4, !tbaa !150
  %8 = sitofp i32 %7 to double
  %9 = fdiv nsz double %5, %8
  ret double %9
}

; Function Attrs: nounwind uwtable
define internal i64 @get_fpsQ(ptr noundef %0) #0 {
  %2 = alloca %struct.AVRational, align 4
  %3 = alloca ptr, align 8
  store ptr %0, ptr %3, align 8, !tbaa !91
  %4 = load ptr, ptr %3, align 8, !tbaa !91
  %5 = getelementptr inbounds nuw %struct.AVCodecContext, ptr %4, i32 0, i32 16
  %6 = getelementptr inbounds nuw %struct.AVRational, ptr %5, i32 0, i32 0
  %7 = load i32, ptr %6, align 4, !tbaa !231
  %8 = icmp sgt i32 %7, 0
  br i1 %8, label %9, label %18

9:                                                ; preds = %1
  %10 = load ptr, ptr %3, align 8, !tbaa !91
  %11 = getelementptr inbounds nuw %struct.AVCodecContext, ptr %10, i32 0, i32 16
  %12 = getelementptr inbounds nuw %struct.AVRational, ptr %11, i32 0, i32 1
  %13 = load i32, ptr %12, align 4, !tbaa !232
  %14 = icmp sgt i32 %13, 0
  br i1 %14, label %15, label %18

15:                                               ; preds = %9
  %16 = load ptr, ptr %3, align 8, !tbaa !91
  %17 = getelementptr inbounds nuw %struct.AVCodecContext, ptr %16, i32 0, i32 16
  call void @llvm.memcpy.p0.p0.i64(ptr align 4 %2, ptr align 4 %17, i64 8, i1 false), !tbaa.struct !233
  br label %23

18:                                               ; preds = %9, %1
  %19 = load ptr, ptr %3, align 8, !tbaa !91
  %20 = getelementptr inbounds nuw %struct.AVCodecContext, ptr %19, i32 0, i32 14
  %21 = load i64, ptr %20, align 4
  %22 = call i64 @av_inv_q(i64 %21)
  store i64 %22, ptr %2, align 4
  br label %23

23:                                               ; preds = %18, %15
  %24 = load i64, ptr %2, align 4
  ret i64 %24
}

; Function Attrs: alwaysinline nounwind willreturn memory(none) uwtable
define internal i32 @av_clip_c(i32 noundef %0, i32 noundef %1, i32 noundef %2) #4 {
  %4 = alloca i32, align 4
  %5 = alloca i32, align 4
  %6 = alloca i32, align 4
  %7 = alloca i32, align 4
  store i32 %0, ptr %5, align 4, !tbaa !96
  store i32 %1, ptr %6, align 4, !tbaa !96
  store i32 %2, ptr %7, align 4, !tbaa !96
  %8 = load i32, ptr %5, align 4, !tbaa !96
  %9 = load i32, ptr %6, align 4, !tbaa !96
  %10 = icmp slt i32 %8, %9
  br i1 %10, label %11, label %13

11:                                               ; preds = %3
  %12 = load i32, ptr %6, align 4, !tbaa !96
  store i32 %12, ptr %4, align 4
  br label %21

13:                                               ; preds = %3
  %14 = load i32, ptr %5, align 4, !tbaa !96
  %15 = load i32, ptr %7, align 4, !tbaa !96
  %16 = icmp sgt i32 %14, %15
  br i1 %16, label %17, label %19

17:                                               ; preds = %13
  %18 = load i32, ptr %7, align 4, !tbaa !96
  store i32 %18, ptr %4, align 4
  br label %21

19:                                               ; preds = %13
  %20 = load i32, ptr %5, align 4, !tbaa !96
  store i32 %20, ptr %4, align 4
  br label %21

21:                                               ; preds = %19, %17, %11
  %22 = load i32, ptr %4, align 4
  ret i32 %22
}

; Function Attrs: nounwind uwtable
define internal double @get_fps(ptr noundef %0) #0 {
  %2 = alloca ptr, align 8
  %3 = alloca %struct.AVRational, align 4
  store ptr %0, ptr %2, align 8, !tbaa !91
  %4 = load ptr, ptr %2, align 8, !tbaa !91
  %5 = call i64 @get_fpsQ(ptr noundef %4)
  store i64 %5, ptr %3, align 4
  %6 = load i64, ptr %3, align 4
  %7 = call nsz double @av_q2d(i64 %6)
  ret double %7
}

; Function Attrs: nounwind uwtable
define i32 @ff_vbv_update(ptr noundef %0, i32 noundef %1) #0 {
  %3 = alloca i32, align 4
  %4 = alloca ptr, align 8
  %5 = alloca i32, align 4
  %6 = alloca ptr, align 8
  %7 = alloca ptr, align 8
  %8 = alloca ptr, align 8
  %9 = alloca double, align 8
  %10 = alloca i32, align 4
  %11 = alloca double, align 8
  %12 = alloca double, align 8
  %13 = alloca i32, align 4
  %14 = alloca i32, align 4
  %15 = alloca i32, align 4
  store ptr %0, ptr %4, align 8, !tbaa !4
  store i32 %1, ptr %5, align 4, !tbaa !96
  call void @llvm.lifetime.start.p0(i64 8, ptr %6) #14
  %16 = load ptr, ptr %4, align 8, !tbaa !4
  %17 = getelementptr inbounds nuw %struct.MPVMainEncContext, ptr %16, i32 0, i32 0
  store ptr %17, ptr %6, align 8, !tbaa !9
  call void @llvm.lifetime.start.p0(i64 8, ptr %7) #14
  %18 = load ptr, ptr %4, align 8, !tbaa !4
  %19 = getelementptr inbounds nuw %struct.MPVMainEncContext, ptr %18, i32 0, i32 40
  store ptr %19, ptr %7, align 8, !tbaa !89
  call void @llvm.lifetime.start.p0(i64 8, ptr %8) #14
  %20 = load ptr, ptr %6, align 8, !tbaa !9
  %21 = getelementptr inbounds nuw %struct.MPVEncContext, ptr %20, i32 0, i32 0
  %22 = getelementptr inbounds nuw %struct.MpegEncContext, ptr %21, i32 0, i32 10
  %23 = load ptr, ptr %22, align 8, !tbaa !11
  store ptr %23, ptr %8, align 8, !tbaa !91
  call void @llvm.lifetime.start.p0(i64 8, ptr %9) #14
  %24 = load ptr, ptr %8, align 8, !tbaa !91
  %25 = call nsz double @get_fps(ptr noundef %24)
  store double %25, ptr %9, align 8, !tbaa !102
  call void @llvm.lifetime.start.p0(i64 4, ptr %10) #14
  %26 = load ptr, ptr %8, align 8, !tbaa !91
  %27 = getelementptr inbounds nuw %struct.AVCodecContext, ptr %26, i32 0, i32 89
  %28 = load i32, ptr %27, align 8, !tbaa !93
  store i32 %28, ptr %10, align 4, !tbaa !96
  call void @llvm.lifetime.start.p0(i64 8, ptr %11) #14
  %29 = load ptr, ptr %8, align 8, !tbaa !91
  %30 = getelementptr inbounds nuw %struct.AVCodecContext, ptr %29, i32 0, i32 93
  %31 = load i64, ptr %30, align 8, !tbaa !180
  %32 = sitofp i64 %31 to double
  %33 = load double, ptr %9, align 8, !tbaa !102
  %34 = fdiv nsz double %32, %33
  store double %34, ptr %11, align 8, !tbaa !102
  call void @llvm.lifetime.start.p0(i64 8, ptr %12) #14
  %35 = load ptr, ptr %8, align 8, !tbaa !91
  %36 = getelementptr inbounds nuw %struct.AVCodecContext, ptr %35, i32 0, i32 92
  %37 = load i64, ptr %36, align 8, !tbaa !94
  %38 = sitofp i64 %37 to double
  %39 = load double, ptr %9, align 8, !tbaa !102
  %40 = fdiv nsz double %38, %39
  store double %40, ptr %12, align 8, !tbaa !102
  br label %41

41:                                               ; preds = %2
  br label %42

42:                                               ; preds = %41
  br label %43

43:                                               ; preds = %42
  %44 = load i32, ptr %10, align 4, !tbaa !96
  %45 = icmp ne i32 %44, 0
  br i1 %45, label %46, label %144

46:                                               ; preds = %43
  call void @llvm.lifetime.start.p0(i64 4, ptr %13) #14
  %47 = load i32, ptr %5, align 4, !tbaa !96
  %48 = sitofp i32 %47 to double
  %49 = load ptr, ptr %7, align 8, !tbaa !89
  %50 = getelementptr inbounds nuw %struct.RateControlContext, ptr %49, i32 0, i32 2
  %51 = load double, ptr %50, align 8, !tbaa !106
  %52 = fsub nsz double %51, %48
  store double %52, ptr %50, align 8, !tbaa !106
  %53 = load ptr, ptr %7, align 8, !tbaa !89
  %54 = getelementptr inbounds nuw %struct.RateControlContext, ptr %53, i32 0, i32 2
  %55 = load double, ptr %54, align 8, !tbaa !106
  %56 = fcmp nsz olt double %55, 0.000000e+00
  br i1 %56, label %57, label %77

57:                                               ; preds = %46
  %58 = load ptr, ptr %8, align 8, !tbaa !91
  call void (ptr, i32, ptr, ...) @av_log(ptr noundef %58, i32 noundef 16, ptr noundef @.str.33)
  %59 = load i32, ptr %5, align 4, !tbaa !96
  %60 = sitofp i32 %59 to double
  %61 = load double, ptr %12, align 8, !tbaa !102
  %62 = fcmp nsz ogt double %60, %61
  br i1 %62, label %63, label %74

63:                                               ; preds = %57
  %64 = load ptr, ptr %6, align 8, !tbaa !9
  %65 = getelementptr inbounds nuw %struct.MPVEncContext, ptr %64, i32 0, i32 0
  %66 = getelementptr inbounds nuw %struct.MpegEncContext, ptr %65, i32 0, i32 60
  %67 = load i32, ptr %66, align 8, !tbaa !181
  %68 = load ptr, ptr %8, align 8, !tbaa !91
  %69 = getelementptr inbounds nuw %struct.AVCodecContext, ptr %68, i32 0, i32 87
  %70 = load i32, ptr %69, align 8, !tbaa !163
  %71 = icmp eq i32 %67, %70
  br i1 %71, label %72, label %74

72:                                               ; preds = %63
  %73 = load ptr, ptr %8, align 8, !tbaa !91
  call void (ptr, i32, ptr, ...) @av_log(ptr noundef %73, i32 noundef 16, ptr noundef @.str.34)
  br label %74

74:                                               ; preds = %72, %63, %57
  %75 = load ptr, ptr %7, align 8, !tbaa !89
  %76 = getelementptr inbounds nuw %struct.RateControlContext, ptr %75, i32 0, i32 2
  store double 0.000000e+00, ptr %76, align 8, !tbaa !106
  br label %77

77:                                               ; preds = %74, %46
  %78 = load i32, ptr %10, align 4, !tbaa !96
  %79 = sitofp i32 %78 to double
  %80 = load ptr, ptr %7, align 8, !tbaa !89
  %81 = getelementptr inbounds nuw %struct.RateControlContext, ptr %80, i32 0, i32 2
  %82 = load double, ptr %81, align 8, !tbaa !106
  %83 = fsub nsz double %79, %82
  %84 = fsub nsz double %83, 1.000000e+00
  %85 = fptosi double %84 to i32
  store i32 %85, ptr %13, align 4, !tbaa !96
  %86 = load i32, ptr %13, align 4, !tbaa !96
  %87 = load double, ptr %11, align 8, !tbaa !102
  %88 = fptosi double %87 to i32
  %89 = load double, ptr %12, align 8, !tbaa !102
  %90 = fptosi double %89 to i32
  %91 = call i32 @av_clip_c(i32 noundef %86, i32 noundef %88, i32 noundef %90) #15
  %92 = sitofp i32 %91 to double
  %93 = load ptr, ptr %7, align 8, !tbaa !89
  %94 = getelementptr inbounds nuw %struct.RateControlContext, ptr %93, i32 0, i32 2
  %95 = load double, ptr %94, align 8, !tbaa !106
  %96 = fadd nsz double %95, %92
  store double %96, ptr %94, align 8, !tbaa !106
  %97 = load ptr, ptr %7, align 8, !tbaa !89
  %98 = getelementptr inbounds nuw %struct.RateControlContext, ptr %97, i32 0, i32 2
  %99 = load double, ptr %98, align 8, !tbaa !106
  %100 = load i32, ptr %10, align 4, !tbaa !96
  %101 = sitofp i32 %100 to double
  %102 = fcmp nsz ogt double %99, %101
  br i1 %102, label %103, label %140

103:                                              ; preds = %77
  call void @llvm.lifetime.start.p0(i64 4, ptr %14) #14
  %104 = load ptr, ptr %7, align 8, !tbaa !89
  %105 = getelementptr inbounds nuw %struct.RateControlContext, ptr %104, i32 0, i32 2
  %106 = load double, ptr %105, align 8, !tbaa !106
  %107 = load i32, ptr %10, align 4, !tbaa !96
  %108 = sitofp i32 %107 to double
  %109 = fsub nsz double %106, %108
  %110 = fdiv nsz double %109, 8.000000e+00
  %111 = call nsz double @llvm.ceil.f64(double %110)
  %112 = fptosi double %111 to i32
  store i32 %112, ptr %14, align 4, !tbaa !96
  %113 = load i32, ptr %14, align 4, !tbaa !96
  %114 = icmp slt i32 %113, 4
  br i1 %114, label %115, label %122

115:                                              ; preds = %103
  %116 = load ptr, ptr %6, align 8, !tbaa !9
  %117 = getelementptr inbounds nuw %struct.MPVEncContext, ptr %116, i32 0, i32 0
  %118 = getelementptr inbounds nuw %struct.MpegEncContext, ptr %117, i32 0, i32 19
  %119 = load i32, ptr %118, align 4, !tbaa !182
  %120 = icmp eq i32 %119, 12
  br i1 %120, label %121, label %122

121:                                              ; preds = %115
  store i32 4, ptr %14, align 4, !tbaa !96
  br label %122

122:                                              ; preds = %121, %115, %103
  %123 = load i32, ptr %14, align 4, !tbaa !96
  %124 = mul nsw i32 8, %123
  %125 = sitofp i32 %124 to double
  %126 = load ptr, ptr %7, align 8, !tbaa !89
  %127 = getelementptr inbounds nuw %struct.RateControlContext, ptr %126, i32 0, i32 2
  %128 = load double, ptr %127, align 8, !tbaa !106
  %129 = fsub nsz double %128, %125
  store double %129, ptr %127, align 8, !tbaa !106
  %130 = load ptr, ptr %8, align 8, !tbaa !91
  %131 = getelementptr inbounds nuw %struct.AVCodecContext, ptr %130, i32 0, i32 103
  %132 = load i32, ptr %131, align 4, !tbaa !183
  %133 = and i32 %132, 2
  %134 = icmp ne i32 %133, 0
  br i1 %134, label %135, label %138

135:                                              ; preds = %122
  %136 = load ptr, ptr %8, align 8, !tbaa !91
  %137 = load i32, ptr %14, align 4, !tbaa !96
  call void (ptr, i32, ptr, ...) @av_log(ptr noundef %136, i32 noundef 48, ptr noundef @.str.35, i32 noundef %137)
  br label %138

138:                                              ; preds = %135, %122
  %139 = load i32, ptr %14, align 4, !tbaa !96
  store i32 %139, ptr %3, align 4
  store i32 1, ptr %15, align 4
  call void @llvm.lifetime.end.p0(i64 4, ptr %14) #14
  br label %141

140:                                              ; preds = %77
  store i32 0, ptr %15, align 4
  br label %141

141:                                              ; preds = %140, %138
  call void @llvm.lifetime.end.p0(i64 4, ptr %13) #14
  %142 = load i32, ptr %15, align 4
  switch i32 %142, label %145 [
    i32 0, label %143
  ]

143:                                              ; preds = %141
  br label %144

144:                                              ; preds = %143, %43
  store i32 0, ptr %3, align 4
  store i32 1, ptr %15, align 4
  br label %145

145:                                              ; preds = %144, %141
  call void @llvm.lifetime.end.p0(i64 8, ptr %12) #14
  call void @llvm.lifetime.end.p0(i64 8, ptr %11) #14
  call void @llvm.lifetime.end.p0(i64 4, ptr %10) #14
  call void @llvm.lifetime.end.p0(i64 8, ptr %9) #14
  call void @llvm.lifetime.end.p0(i64 8, ptr %8) #14
  call void @llvm.lifetime.end.p0(i64 8, ptr %7) #14
  call void @llvm.lifetime.end.p0(i64 8, ptr %6) #14
  %146 = load i32, ptr %3, align 4
  ret i32 %146
}