; Function Attrs: nounwind uwtable
define i32 @ff_vbv_update(ptr noundef captures(none) %0, i32 noundef %1) local_unnamed_addr #4 {
  %3 = getelementptr inbounds nuw i8, ptr %0, i64 472
  %4 = load ptr, ptr %3, align 8, !tbaa !4
  %5 = getelementptr inbounds nuw i8, ptr %4, i64 100
  %6 = load i32, ptr %5, align 4, !tbaa !89
  %7 = icmp sgt i32 %6, 0
  br i1 %7, label %8, label %13

8:                                                ; preds = %2
  %9 = getelementptr inbounds nuw i8, ptr %4, i64 104
  %10 = load i32, ptr %9, align 4, !tbaa !90
  %11 = icmp sgt i32 %10, 0
  br i1 %11, label %12, label %13

12:                                               ; preds = %8
  %.sroa.0.0.copyload.i.i = load i64, ptr %5, align 4
  br label %get_fps.exit

13:                                               ; preds = %8, %2
  %14 = getelementptr inbounds nuw i8, ptr %4, i64 84
  %15 = load i64, ptr %14, align 4
  %.sroa.01.0.insert.insert.i.i.i = tail call i64 @llvm.fshl.i64(i64 %15, i64 %15, i64 32)
  br label %get_fps.exit

get_fps.exit:                                     ; preds = %12, %13
  %.sroa.0.0.i.i = phi i64 [ %.sroa.0.0.copyload.i.i, %12 ], [ %.sroa.01.0.insert.insert.i.i.i, %13 ]
  %.sroa.0.0.extract.trunc.i.i = trunc i64 %.sroa.0.0.i.i to i32
  %.sroa.2.0.extract.shift.i.i = lshr i64 %.sroa.0.0.i.i, 32
  %.sroa.2.0.extract.trunc.i.i = trunc nuw i64 %.sroa.2.0.extract.shift.i.i to i32
  %16 = sitofp i32 %.sroa.0.0.extract.trunc.i.i to double
  %17 = sitofp i32 %.sroa.2.0.extract.trunc.i.i to double
  %18 = fdiv nsz double %16, %17
  %19 = getelementptr inbounds nuw i8, ptr %4, i64 448
  %20 = load i32, ptr %19, align 8, !tbaa !87
  %21 = getelementptr inbounds nuw i8, ptr %4, i64 472
  %22 = load i64, ptr %21, align 8, !tbaa !127
  %23 = sitofp i64 %22 to double
  %24 = fdiv nsz double %23, %18
  %25 = getelementptr inbounds nuw i8, ptr %4, i64 464
  %26 = load i64, ptr %25, align 8, !tbaa !88
  %27 = sitofp i64 %26 to double
  %28 = fdiv nsz double %27, %18
  %.not = icmp eq i32 %20, 0
  br i1 %.not, label %.thread, label %29

29:                                               ; preds = %get_fps.exit
  %30 = sitofp i32 %1 to double
  %31 = getelementptr inbounds nuw i8, ptr %0, i64 7608
  %32 = load double, ptr %31, align 8, !tbaa !102
  %33 = fsub nsz double %32, %30
  store double %33, ptr %31, align 8, !tbaa !102
  %34 = fcmp nsz olt double %33, 0.000000e+00
  br i1 %34, label %35, label %44

35:                                               ; preds = %29
  tail call void (ptr, i32, ptr, ...) @av_log(ptr noundef nonnull %4, i32 noundef 16, ptr noundef nonnull @.str.33) #13
  %36 = fcmp nsz olt double %28, %30
  br i1 %36, label %37, label %44

37:                                               ; preds = %35
  %38 = getelementptr inbounds nuw i8, ptr %0, i64 1472
  %39 = load i32, ptr %38, align 8, !tbaa !128
  %40 = getelementptr inbounds nuw i8, ptr %4, i64 440
  %41 = load i32, ptr %40, align 8, !tbaa !129
  %42 = icmp eq i32 %39, %41
  br i1 %42, label %43, label %44

43:                                               ; preds = %37
  tail call void (ptr, i32, ptr, ...) @av_log(ptr noundef nonnull %4, i32 noundef 16, ptr noundef nonnull @.str.34) #13
  br label %44

44:                                               ; preds = %35, %37, %43, %29
  %45 = phi double [ %33, %29 ], [ 0.000000e+00, %43 ], [ 0.000000e+00, %37 ], [ 0.000000e+00, %35 ]
  %46 = sitofp i32 %20 to double
  %47 = fsub nsz double %46, %45
  %48 = fadd nsz double %47, -1.000000e+00
  %49 = fptosi double %48 to i32
  %50 = fptosi double %24 to i32
  %51 = fptosi double %28 to i32
  %52 = icmp slt i32 %49, %50
  %..i = tail call i32 @llvm.smin.i32(i32 %49, i32 %51)
  %.0.i = select i1 %52, i32 %50, i32 %..i
  %53 = sitofp i32 %.0.i to double
  %54 = fadd nsz double %45, %53
  store double %54, ptr %31, align 8, !tbaa !102
  %55 = fcmp nsz ule double %54, %46
  br i1 %55, label %.thread, label %56

56:                                               ; preds = %44
  %57 = fsub nsz double %54, %46
  %58 = fmul nsz double %57, 1.250000e-01
  %59 = tail call nsz double @llvm.ceil.f64(double %58)
  %60 = fptosi double %59 to i32
  %61 = icmp slt i32 %60, 4
  br i1 %61, label %62, label %66

62:                                               ; preds = %56
  %63 = getelementptr inbounds nuw i8, ptr %0, i64 516
  %64 = load i32, ptr %63, align 4, !tbaa !130
  %65 = icmp eq i32 %64, 12
  %spec.select = select i1 %65, i32 4, i32 %60
  br label %66

66:                                               ; preds = %62, %56
  %.039 = phi i32 [ %60, %56 ], [ %spec.select, %62 ]
  %67 = shl nsw i32 %.039, 3
  %68 = sitofp i32 %67 to double
  %69 = fsub nsz double %54, %68
  store double %69, ptr %31, align 8, !tbaa !102
  %70 = getelementptr inbounds nuw i8, ptr %4, i64 524
  %71 = load i32, ptr %70, align 4, !tbaa !131
  %72 = and i32 %71, 2
  %.not46 = icmp eq i32 %72, 0
  br i1 %.not46, label %.thread, label %73

73:                                               ; preds = %66
  tail call void (ptr, i32, ptr, ...) @av_log(ptr noundef nonnull %4, i32 noundef 48, ptr noundef nonnull @.str.35, i32 noundef %.039) #13
  br label %.thread

.thread:                                          ; preds = %73, %66, %get_fps.exit, %44
  %.1 = phi i32 [ 0, %44 ], [ 0, %get_fps.exit ], [ %.039, %66 ], [ %.039, %73 ]
  ret i32 %.1
}